; Function Attrs: nounwind uwtable
define dso_local i64 @pg_get_viewdef_ext(ptr noundef captures(none) %0) local_unnamed_addr #0 {
  %2 = getelementptr inbounds nuw i8, ptr %0, i64 32
  %3 = load i64, ptr %2, align 8
  %4 = trunc i64 %3 to i32
  %5 = getelementptr inbounds nuw i8, ptr %0, i64 48
  %6 = load i64, ptr %5, align 8
  %.not = icmp eq i64 %6, 0
  %7 = select i1 %.not, i32 2, i32 7
  %8 = tail call fastcc ptr @pg_get_viewdef_worker(i32 noundef %4, i32 noundef %7, i32 noundef 0)
  %9 = icmp eq ptr %8, null
  br i1 %9, label %10, label %12

10:                                               ; preds = %1
  %11 = getelementptr inbounds nuw i8, ptr %0, i64 28
  store i8 1, ptr %11, align 4
  br label %15

12:                                               ; preds = %1
  %13 = tail call ptr @cstring_to_text(ptr noundef nonnull %8) #11
  tail call void @pfree(ptr noundef nonnull %8) #11
  %14 = ptrtoint ptr %13 to i64
  br label %15

15:                                               ; preds = %12, %10
  %.0 = phi i64 [ 0, %10 ], [ %14, %12 ]
  ret i64 %.0
}